target datalayout = "e-m:e-p270:32:32-p271:32:32-p272:64:64-i64:64-i128:128-f80:128-n8:16:32:64-S128"
target triple = "x86_64-pc-linux-gnu"

%"class.std::__cxx11::basic_string" = type { %"struct.std::__cxx11::basic_string<char>::_Alloc_hider", i64, %union.anon }
%"struct.std::__cxx11::basic_string<char>::_Alloc_hider" = type { ptr }
%union.anon = type { i64, [8 x i8] }
%"class.llvm::LLLexer" = type <{ ptr, %"class.llvm::StringRef", ptr, ptr, ptr, ptr, i32, [4 x i8], %"class.std::__cxx11::basic_string", i32, [4 x i8], ptr, %"class.llvm::APFloat", %"class.llvm::APSInt", i8, [7 x i8] }>
%"class.llvm::StringRef" = type { ptr, i64 }
%"class.llvm::APFloat" = type { [8 x i8], %"union.llvm::APFloat::Storage" }
%"union.llvm::APFloat::Storage" = type { %"class.llvm::detail::DoubleAPFloat", [8 x i8] }
%"class.llvm::detail::DoubleAPFloat" = type { ptr, %"class.std::unique_ptr" }
%"class.std::unique_ptr" = type { %"struct.std::__uniq_ptr_data" }
%"struct.std::__uniq_ptr_data" = type { %"class.std::__uniq_ptr_impl" }
%"class.std::__uniq_ptr_impl" = type { %"class.std::tuple" }
%"class.std::tuple" = type { %"struct.std::_Tuple_impl" }
%"struct.std::_Tuple_impl" = type { %"struct.std::_Head_base.4" }
%"struct.std::_Head_base.4" = type { ptr }
%"class.llvm::APSInt" = type { %"class.llvm::APInt.base", i8, [3 x i8] }
%"class.llvm::APInt.base" = type <{ %union.anon.5, i32 }>
%union.anon.5 = type { i64 }
%"class.__gnu_cxx::__normal_iterator" = type { ptr }
%"class.__gnu_cxx::__normal_iterator.18" = type { ptr }

; Function Attrs: mustprogress nounwind uwtable
define linkonce_odr hidden noundef nonnull align 8 dereferenceable(8) ptr @_ZNK9__gnu_cxx17__normal_iteratorIPcNSt7__cxx1112basic_stringIcSt11char_traitsIcESaIcEEEE4baseEv(ptr noundef nonnull align 8 dereferenceable(8) %0) #0 comdat align 2 {
  %2 = alloca ptr, align 8
  store ptr %0, ptr %2, align 8
  %3 = load ptr, ptr %2, align 8
  %4 = getelementptr inbounds nuw %"class.__gnu_cxx::__normal_iterator.18", ptr %3, i32 0, i32 0
  ret ptr %4
}

; Function Attrs: mustprogress nounwind uwtable
define linkonce_odr hidden void @_ZN9__gnu_cxx17__normal_iteratorIPKcNSt7__cxx1112basic_stringIcSt11char_traitsIcESaIcEEEEC2IPcvEERKNS0_IT_S8_EE(ptr noundef nonnull align 8 dereferenceable(8) %0, ptr noundef nonnull align 8 dereferenceable(8) %1) unnamed_addr #0 comdat align 2 {
  %3 = alloca ptr, align 8
  %4 = alloca ptr, align 8
  store ptr %0, ptr %3, align 8
  store ptr %1, ptr %4, align 8
  %5 = load ptr, ptr %3, align 8
  %6 = getelementptr inbounds nuw %"class.__gnu_cxx::__normal_iterator", ptr %5, i32 0, i32 0
  %7 = load ptr, ptr %4, align 8
  %8 = call noundef nonnull align 8 dereferenceable(8) ptr @_ZNK9__gnu_cxx17__normal_iteratorIPcNSt7__cxx1112basic_stringIcSt11char_traitsIcESaIcEEEE4baseEv(ptr noundef nonnull align 8 dereferenceable(8) %7) #9
  %9 = load ptr, ptr %8, align 8
  store ptr %9, ptr %6, align 8
  ret void
}

; Function Attrs: mustprogress nounwind uwtable
define linkonce_odr hidden noundef nonnull align 8 dereferenceable(32) ptr @_ZNSt7__cxx1112basic_stringIcSt11char_traitsIcESaIcEE6assignIPKcvEERS4_T_S9_(ptr noundef nonnull align 8 dereferenceable(32) %0, ptr noundef %1, ptr noundef %2) #0 comdat align 2 {
  %4 = alloca ptr, align 8
  %5 = alloca ptr, align 8
  %6 = alloca ptr, align 8
  %7 = alloca %"class.__gnu_cxx::__normal_iterator", align 8
  %8 = alloca %"class.__gnu_cxx::__normal_iterator.18", align 8
  %9 = alloca %"class.__gnu_cxx::__normal_iterator", align 8
  %10 = alloca %"class.__gnu_cxx::__normal_iterator.18", align 8
  store ptr %0, ptr %4, align 8
  store ptr %1, ptr %5, align 8
  store ptr %2, ptr %6, align 8
  %11 = load ptr, ptr %4, align 8
  %12 = call ptr @_ZNSt7__cxx1112basic_stringIcSt11char_traitsIcESaIcEE5beginEv(ptr noundef nonnull align 8 dereferenceable(32) %11) #9
  %13 = getelementptr inbounds nuw %"class.__gnu_cxx::__normal_iterator.18", ptr %8, i32 0, i32 0
  store ptr %12, ptr %13, align 8
  call void @_ZN9__gnu_cxx17__normal_iteratorIPKcNSt7__cxx1112basic_stringIcSt11char_traitsIcESaIcEEEEC2IPcvEERKNS0_IT_S8_EE(ptr noundef nonnull align 8 dereferenceable(8) %7, ptr noundef nonnull align 8 dereferenceable(8) %8) #9
  %14 = call ptr @_ZNSt7__cxx1112basic_stringIcSt11char_traitsIcESaIcEE3endEv(ptr noundef nonnull align 8 dereferenceable(32) %11) #9
  %15 = getelementptr inbounds nuw %"class.__gnu_cxx::__normal_iterator.18", ptr %10, i32 0, i32 0
  store ptr %14, ptr %15, align 8
  call void @_ZN9__gnu_cxx17__normal_iteratorIPKcNSt7__cxx1112basic_stringIcSt11char_traitsIcESaIcEEEEC2IPcvEERKNS0_IT_S8_EE(ptr noundef nonnull align 8 dereferenceable(8) %9, ptr noundef nonnull align 8 dereferenceable(8) %10) #9
  %16 = load ptr, ptr %5, align 8
  %17 = load ptr, ptr %6, align 8
  %18 = getelementptr inbounds nuw %"class.__gnu_cxx::__normal_iterator", ptr %7, i32 0, i32 0
  %19 = load ptr, ptr %18, align 8
  %20 = getelementptr inbounds nuw %"class.__gnu_cxx::__normal_iterator", ptr %9, i32 0, i32 0
  %21 = load ptr, ptr %20, align 8
  %22 = call noundef nonnull align 8 dereferenceable(32) ptr @_ZNSt7__cxx1112basic_stringIcSt11char_traitsIcESaIcEE7replaceEN9__gnu_cxx17__normal_iteratorIPKcS4_EES9_S8_S8_(ptr noundef nonnull align 8 dereferenceable(32) %11, ptr %19, ptr %21, ptr noundef %16, ptr noundef %17)
  ret ptr %22
}

; Function Attrs: mustprogress nounwind uwtable
define dso_local noundef i32 @_ZN4llvm7LLLexer10LexExclaimEv(ptr noundef nonnull align 8 dereferenceable(161) %0) #0 align 2 {
  %2 = alloca i32, align 4
  %3 = alloca ptr, align 8
  store ptr %0, ptr %3, align 8
  %4 = load ptr, ptr %3, align 8
  %5 = getelementptr inbounds nuw %"class.llvm::LLLexer", ptr %4, i32 0, i32 0
  %6 = load ptr, ptr %5, align 8
  %7 = getelementptr inbounds i8, ptr %6, i64 0
  %8 = load i8, ptr %7, align 1
  %9 = zext i8 %8 to i32
  %10 = call i32 @isalpha(i32 noundef %9) #11
  %11 = icmp ne i32 %10, 0
  br i1 %11, label %47, label %12

12:                                               ; preds = %1
  %13 = getelementptr inbounds nuw %"class.llvm::LLLexer", ptr %4, i32 0, i32 0
  %14 = load ptr, ptr %13, align 8
  %15 = getelementptr inbounds i8, ptr %14, i64 0
  %16 = load i8, ptr %15, align 1
  %17 = sext i8 %16 to i32
  %18 = icmp eq i32 %17, 45
  br i1 %18, label %47, label %19

19:                                               ; preds = %12
  %20 = getelementptr inbounds nuw %"class.llvm::LLLexer", ptr %4, i32 0, i32 0
  %21 = load ptr, ptr %20, align 8
  %22 = getelementptr inbounds i8, ptr %21, i64 0
  %23 = load i8, ptr %22, align 1
  %24 = sext i8 %23 to i32
  %25 = icmp eq i32 %24, 36
  br i1 %25, label %47, label %26

26:                                               ; preds = %19
  %27 = getelementptr inbounds nuw %"class.llvm::LLLexer", ptr %4, i32 0, i32 0
  %28 = load ptr, ptr %27, align 8
  %29 = getelementptr inbounds i8, ptr %28, i64 0
  %30 = load i8, ptr %29, align 1
  %31 = sext i8 %30 to i32
  %32 = icmp eq i32 %31, 46
  br i1 %32, label %47, label %33

33:                                               ; preds = %26
  %34 = getelementptr inbounds nuw %"class.llvm::LLLexer", ptr %4, i32 0, i32 0
  %35 = load ptr, ptr %34, align 8
  %36 = getelementptr inbounds i8, ptr %35, i64 0
  %37 = load i8, ptr %36, align 1
  %38 = sext i8 %37 to i32
  %39 = icmp eq i32 %38, 95
  br i1 %39, label %47, label %40

40:                                               ; preds = %33
  %41 = getelementptr inbounds nuw %"class.llvm::LLLexer", ptr %4, i32 0, i32 0
  %42 = load ptr, ptr %41, align 8
  %43 = getelementptr inbounds i8, ptr %42, i64 0
  %44 = load i8, ptr %43, align 1
  %45 = sext i8 %44 to i32
  %46 = icmp eq i32 %45, 92
  br i1 %46, label %47, label %109

47:                                               ; preds = %40, %33, %26, %19, %12, %1
  %48 = getelementptr inbounds nuw %"class.llvm::LLLexer", ptr %4, i32 0, i32 0
  %49 = load ptr, ptr %48, align 8
  %50 = getelementptr inbounds i8, ptr %49, i32 1
  store ptr %50, ptr %48, align 8
  br label %51

51:                                               ; preds = %96, %47
  %52 = getelementptr inbounds nuw %"class.llvm::LLLexer", ptr %4, i32 0, i32 0
  %53 = load ptr, ptr %52, align 8
  %54 = getelementptr inbounds i8, ptr %53, i64 0
  %55 = load i8, ptr %54, align 1
  %56 = zext i8 %55 to i32
  %57 = call i32 @isalnum(i32 noundef %56) #11
  %58 = icmp ne i32 %57, 0
  br i1 %58, label %94, label %59

59:                                               ; preds = %51
  %60 = getelementptr inbounds nuw %"class.llvm::LLLexer", ptr %4, i32 0, i32 0
  %61 = load ptr, ptr %60, align 8
  %62 = getelementptr inbounds i8, ptr %61, i64 0
  %63 = load i8, ptr %62, align 1
  %64 = sext i8 %63 to i32
  %65 = icmp eq i32 %64, 45
  br i1 %65, label %94, label %66

66:                                               ; preds = %59
  %67 = getelementptr inbounds nuw %"class.llvm::LLLexer", ptr %4, i32 0, i32 0
  %68 = load ptr, ptr %67, align 8
  %69 = getelementptr inbounds i8, ptr %68, i64 0
  %70 = load i8, ptr %69, align 1
  %71 = sext i8 %70 to i32
  %72 = icmp eq i32 %71, 36
  br i1 %72, label %94, label %73

73:                                               ; preds = %66
  %74 = getelementptr inbounds nuw %"class.llvm::LLLexer", ptr %4, i32 0, i32 0
  %75 = load ptr, ptr %74, align 8
  %76 = getelementptr inbounds i8, ptr %75, i64 0
  %77 = load i8, ptr %76, align 1
  %78 = sext i8 %77 to i32
  %79 = icmp eq i32 %78, 46
  br i1 %79, label %94, label %80

80:                                               ; preds = %73
  %81 = getelementptr inbounds nuw %"class.llvm::LLLexer", ptr %4, i32 0, i32 0
  %82 = load ptr, ptr %81, align 8
  %83 = getelementptr inbounds i8, ptr %82, i64 0
  %84 = load i8, ptr %83, align 1
  %85 = sext i8 %84 to i32
  %86 = icmp eq i32 %85, 95
  br i1 %86, label %94, label %87

87:                                               ; preds = %80
  %88 = getelementptr inbounds nuw %"class.llvm::LLLexer", ptr %4, i32 0, i32 0
  %89 = load ptr, ptr %88, align 8
  %90 = getelementptr inbounds i8, ptr %89, i64 0
  %91 = load i8, ptr %90, align 1
  %92 = sext i8 %91 to i32
  %93 = icmp eq i32 %92, 92
  br label %94

94:                                               ; preds = %87, %80, %73, %66, %59, %51
  %95 = phi i1 [ true, %80 ], [ true, %73 ], [ true, %66 ], [ true, %59 ], [ true, %51 ], [ %93, %87 ]
  br i1 %95, label %96, label %100

96:                                               ; preds = %94
  %97 = getelementptr inbounds nuw %"class.llvm::LLLexer", ptr %4, i32 0, i32 0
  %98 = load ptr, ptr %97, align 8
  %99 = getelementptr inbounds i8, ptr %98, i32 1
  store ptr %99, ptr %97, align 8
  br label %51, !llvm.loop !19

100:                                              ; preds = %94
  %101 = getelementptr inbounds nuw %"class.llvm::LLLexer", ptr %4, i32 0, i32 8
  %102 = getelementptr inbounds nuw %"class.llvm::LLLexer", ptr %4, i32 0, i32 5
  %103 = load ptr, ptr %102, align 8
  %104 = getelementptr inbounds i8, ptr %103, i64 1
  %105 = getelementptr inbounds nuw %"class.llvm::LLLexer", ptr %4, i32 0, i32 0
  %106 = load ptr, ptr %105, align 8
  %107 = call noundef nonnull align 8 dereferenceable(32) ptr @_ZNSt7__cxx1112basic_stringIcSt11char_traitsIcESaIcEE6assignIPKcvEERS4_T_S9_(ptr noundef nonnull align 8 dereferenceable(32) %101, ptr noundef %104, ptr noundef %106)
  %108 = getelementptr inbounds nuw %"class.llvm::LLLexer", ptr %4, i32 0, i32 8
  call void @_ZL13UnEscapeLexedRNSt7__cxx1112basic_stringIcSt11char_traitsIcESaIcEEE(ptr noundef nonnull align 8 dereferenceable(32) %108)
  store i32 496, ptr %2, align 4
  br label %110

109:                                              ; preds = %40
  store i32 14, ptr %2, align 4
  br label %110

110:                                              ; preds = %109, %100
  %111 = load i32, ptr %2, align 4
  ret i32 %111
}