; Function Attrs: mustprogress nounwind uwtable
define dso_local noundef range(i32 14, 497) i32 @_ZN4llvm7LLLexer10LexExclaimEv(ptr noundef nonnull align 8 dereferenceable(161) %0) local_unnamed_addr #0 align 2 {
  %2 = load ptr, ptr %0, align 8
  %3 = load i8, ptr %2, align 1
  %4 = zext i8 %3 to i32
  %5 = tail call i32 @isalpha(i32 noundef %4) #18
  %.fr = freeze i32 %5
  %.not.not = icmp eq i32 %.fr, 0
  br i1 %.not.not, label %switch.early.test, label %.critedge.preheader

switch.early.test:                                ; preds = %1
  switch i8 %3, label %17 [
    i8 95, label %.critedge.preheader
    i8 92, label %.critedge.preheader
    i8 46, label %.critedge.preheader
    i8 45, label %.critedge.preheader
    i8 36, label %.critedge.preheader
  ]

.critedge.preheader:                              ; preds = %1, %switch.early.test, %switch.early.test, %switch.early.test, %switch.early.test, %switch.early.test
  br label %.critedge

.critedge:                                        ; preds = %.critedge.backedge, %.critedge.preheader
  %.pn15 = phi ptr [ %2, %.critedge.preheader ], [ %storemerge, %.critedge.backedge ]
  %storemerge = getelementptr inbounds i8, ptr %.pn15, i64 1
  store ptr %storemerge, ptr %0, align 8
  %6 = load i8, ptr %storemerge, align 1
  %7 = zext i8 %6 to i32
  %8 = tail call i32 @isalnum(i32 noundef %7) #18
  %.fr14 = freeze i32 %8
  %.not3.not = icmp eq i32 %.fr14, 0
  br i1 %.not3.not, label %switch.early.test13, label %.critedge.backedge

.critedge.backedge:                               ; preds = %.critedge, %switch.early.test13, %switch.early.test13, %switch.early.test13, %switch.early.test13, %switch.early.test13
  br label %.critedge

switch.early.test13:                              ; preds = %.critedge
  switch i8 %6, label %9 [
    i8 95, label %.critedge.backedge
    i8 92, label %.critedge.backedge
    i8 46, label %.critedge.backedge
    i8 45, label %.critedge.backedge
    i8 36, label %.critedge.backedge
  ]

9:                                                ; preds = %switch.early.test13
  %10 = getelementptr inbounds nuw i8, ptr %0, i64 64
  %11 = getelementptr inbounds nuw i8, ptr %0, i64 48
  %12 = load ptr, ptr %11, align 8
  %13 = getelementptr inbounds i8, ptr %12, i64 1
  %14 = tail call ptr @_ZNSt7__cxx1112basic_stringIcSt11char_traitsIcESaIcEE5beginEv(ptr noundef nonnull align 8 dereferenceable(32) %10) #15
  %15 = tail call ptr @_ZNSt7__cxx1112basic_stringIcSt11char_traitsIcESaIcEE3endEv(ptr noundef nonnull align 8 dereferenceable(32) %10) #15
  %16 = tail call noundef nonnull align 8 dereferenceable(32) ptr @_ZNSt7__cxx1112basic_stringIcSt11char_traitsIcESaIcEE7replaceEN9__gnu_cxx17__normal_iteratorIPKcS4_EES9_S8_S8_(ptr noundef nonnull align 8 dereferenceable(32) %10, ptr %14, ptr %15, ptr noundef nonnull %13, ptr noundef nonnull %storemerge) #15
  tail call fastcc void @_ZL13UnEscapeLexedRNSt7__cxx1112basic_stringIcSt11char_traitsIcESaIcEEE(ptr noundef nonnull align 8 dereferenceable(32) %10)
  br label %17

17:                                               ; preds = %switch.early.test, %9
  %.0 = phi i32 [ 496, %9 ], [ 14, %switch.early.test ]
  ret i32 %.0
}